; Function Attrs: mustprogress nofree norecurse nosync nounwind willreturn memory(argmem: readwrite) uwtable
define void @_ZN6icu_776number4impl14SymbolsWrapper10doMoveFromEOS2_(ptr noundef nonnull writeonly align 8 captures(none) dereferenceable(16) initializes((0, 4)) %0, ptr noundef nonnull align 8 captures(none) dereferenceable(16) %1) local_unnamed_addr #9 align 2 {
  %3 = load i32, ptr %1, align 8, !tbaa !15
  store i32 %3, ptr %0, align 8, !tbaa !15
  %.off = add i32 %3, -1
  %switch = icmp ult i32 %.off, 2
  br i1 %switch, label %.sink.split, label %7

.sink.split:                                      ; preds = %2
  %4 = getelementptr inbounds nuw i8, ptr %1, i64 8
  %5 = load ptr, ptr %4, align 8, !tbaa !18
  %6 = getelementptr inbounds nuw i8, ptr %0, i64 8
  store ptr %5, ptr %6, align 8, !tbaa !18
  store ptr null, ptr %4, align 8, !tbaa !18
  br label %7

7:                                                ; preds = %2, %.sink.split
  ret void
}